target datalayout = "e-m:e-p270:32:32-p271:32:32-p272:64:64-i64:64-i128:128-f80:128-n8:16:32:64-S128"
target triple = "x86_64-pc-linux-gnu"

; Function Attrs: nounwind uwtable
define internal void @find_rms(ptr noundef %0, i32 noundef %1, ptr noundef %2) #1 {
  %4 = alloca ptr, align 8
  %5 = alloca i32, align 4
  %6 = alloca ptr, align 8
  %7 = alloca float, align 4
  %8 = alloca i32, align 4
  store ptr %0, ptr %4, align 8, !tbaa !69
  store i32 %1, ptr %5, align 4, !tbaa !33
  store ptr %2, ptr %6, align 8, !tbaa !69
  call void @llvm.lifetime.start.p0(i64 4, ptr %7) #12
  store float 0.000000e+00, ptr %7, align 4, !tbaa !70
  call void @llvm.lifetime.start.p0(i64 4, ptr %8) #12
  store i32 0, ptr %8, align 4, !tbaa !33
  br label %9

9:                                                ; preds = %27, %3
  %10 = load i32, ptr %8, align 4, !tbaa !33
  %11 = load i32, ptr %5, align 4, !tbaa !33
  %12 = icmp slt i32 %10, %11
  br i1 %12, label %14, label %13

13:                                               ; preds = %9
  call void @llvm.lifetime.end.p0(i64 4, ptr %8) #12
  br label %30

14:                                               ; preds = %9
  %15 = load ptr, ptr %4, align 8, !tbaa !69
  %16 = load i32, ptr %8, align 4, !tbaa !33
  %17 = sext i32 %16 to i64
  %18 = getelementptr inbounds float, ptr %15, i64 %17
  %19 = load float, ptr %18, align 4, !tbaa !70
  %20 = load ptr, ptr %4, align 8, !tbaa !69
  %21 = load i32, ptr %8, align 4, !tbaa !33
  %22 = sext i32 %21 to i64
  %23 = getelementptr inbounds float, ptr %20, i64 %22
  %24 = load float, ptr %23, align 4, !tbaa !70
  %25 = load float, ptr %7, align 4, !tbaa !70
  %26 = call nsz float @llvm.fmuladd.f32(float %19, float %24, float %25)
  store float %26, ptr %7, align 4, !tbaa !70
  br label %27

27:                                               ; preds = %14
  %28 = load i32, ptr %8, align 4, !tbaa !33
  %29 = add nsw i32 %28, 1
  store i32 %29, ptr %8, align 4, !tbaa !33
  br label %9, !llvm.loop !73

30:                                               ; preds = %13
  %31 = load float, ptr %7, align 4, !tbaa !70
  %32 = load i32, ptr %5, align 4, !tbaa !33
  %33 = sitofp i32 %32 to float
  %34 = fdiv nsz float %31, %33
  %35 = call nsz float @llvm.sqrt.f32(float %34)
  %36 = load ptr, ptr %6, align 8, !tbaa !69
  store float %35, ptr %36, align 4, !tbaa !70
  call void @llvm.lifetime.end.p0(i64 4, ptr %7) #12
  ret void
}