; Function Attrs: nofree norecurse nosync nounwind memory(argmem: readwrite) uwtable
define internal void @find_rms(ptr noundef readonly captures(none) %0, i32 noundef %1, ptr noundef writeonly captures(none) %2) #5 {
  %4 = icmp sgt i32 %1, 0
  br i1 %4, label %.lr.ph.preheader, label %._crit_edge

.lr.ph.preheader:                                 ; preds = %3
  %wide.trip.count = zext nneg i32 %1 to i64
  br label %.lr.ph

._crit_edge:                                      ; preds = %.lr.ph, %3
  %.010.lcssa = phi float [ 0.000000e+00, %3 ], [ %10, %.lr.ph ]
  %5 = sitofp i32 %1 to float
  %6 = fdiv nsz float %.010.lcssa, %5
  %7 = tail call nsz float @llvm.sqrt.f32(float %6)
  store float %7, ptr %2, align 4, !tbaa !78
  ret void

.lr.ph:                                           ; preds = %.lr.ph.preheader, %.lr.ph
  %indvars.iv = phi i64 [ 0, %.lr.ph.preheader ], [ %indvars.iv.next, %.lr.ph ]
  %.01012 = phi float [ 0.000000e+00, %.lr.ph.preheader ], [ %10, %.lr.ph ]
  %8 = getelementptr inbounds nuw float, ptr %0, i64 %indvars.iv
  %9 = load float, ptr %8, align 4, !tbaa !78
  %10 = tail call nsz float @llvm.fmuladd.f32(float %9, float %9, float %.01012)
  %indvars.iv.next = add nuw nsw i64 %indvars.iv, 1
  %exitcond.not = icmp eq i64 %indvars.iv.next, %wide.trip.count
  br i1 %exitcond.not, label %._crit_edge, label %.lr.ph, !llvm.loop !111
}